target datalayout = "e-m:e-p270:32:32-p271:32:32-p272:64:64-i64:64-i128:128-f80:128-n8:16:32:64-S128"
target triple = "x86_64-pc-linux-gnu"

%struct.compression_type = type { i32, ptr, ptr, ptr, i8 }

; Function Attrs: nounwind null_pointer_is_valid sspstrong uwtable
define ptr @wtap_compression_type_name(i32 noundef %0) #3 {
  %2 = alloca ptr, align 8
  %3 = alloca i32, align 4
  %4 = alloca ptr, align 8
  %5 = alloca i32, align 4
  store i32 %0, ptr %3, align 4
  call void @llvm.lifetime.start.p0(i64 8, ptr %4) #14
  store ptr @compression_types, ptr %4, align 8
  br label %6

6:                                                ; preds = %23, %1
  %7 = load ptr, ptr %4, align 8
  %8 = getelementptr inbounds nuw %struct.compression_type, ptr %7, i32 0, i32 0
  %9 = load i32, ptr %8, align 8
  %10 = icmp ne i32 %9, 0
  br i1 %10, label %12, label %11

11:                                               ; preds = %6
  store i32 2, ptr %5, align 4
  br label %26

12:                                               ; preds = %6
  %13 = load ptr, ptr %4, align 8
  %14 = getelementptr inbounds nuw %struct.compression_type, ptr %13, i32 0, i32 0
  %15 = load i32, ptr %14, align 8
  %16 = load i32, ptr %3, align 4
  %17 = icmp eq i32 %15, %16
  br i1 %17, label %18, label %22

18:                                               ; preds = %12
  %19 = load ptr, ptr %4, align 8
  %20 = getelementptr inbounds nuw %struct.compression_type, ptr %19, i32 0, i32 3
  %21 = load ptr, ptr %20, align 8
  store ptr %21, ptr %2, align 8
  store i32 1, ptr %5, align 4
  br label %26

22:                                               ; preds = %12
  br label %23

23:                                               ; preds = %22
  %24 = load ptr, ptr %4, align 8
  %25 = getelementptr %struct.compression_type, ptr %24, i32 1
  store ptr %25, ptr %4, align 8
  br label %6, !llvm.loop !14

26:                                               ; preds = %18, %11
  call void @llvm.lifetime.end.p0(i64 8, ptr %4) #14
  %27 = load i32, ptr %5, align 4
  switch i32 %27, label %31 [
    i32 2, label %28
    i32 1, label %29
  ]

28:                                               ; preds = %26
  store ptr null, ptr %2, align 8
  br label %29

29:                                               ; preds = %28, %26
  %30 = load ptr, ptr %2, align 8
  ret ptr %30

31:                                               ; preds = %26
  unreachable
}